target datalayout = "e-m:e-p270:32:32-p271:32:32-p272:64:64-i64:64-i128:128-f80:128-n8:16:32:64-S128"
target triple = "x86_64-pc-linux-gnu"

; Function Attrs: nounwind uwtable
define i32 @arkResizeVecArray(ptr noundef %0, ptr noundef %1, i32 noundef %2, ptr noundef %3, ptr noundef %4, i64 noundef %5, ptr noundef %6, i64 noundef %7, ptr noundef %8) #0 {
  %10 = alloca i32, align 4
  %11 = alloca ptr, align 8
  %12 = alloca ptr, align 8
  %13 = alloca i32, align 4
  %14 = alloca ptr, align 8
  %15 = alloca ptr, align 8
  %16 = alloca i64, align 8
  %17 = alloca ptr, align 8
  %18 = alloca i64, align 8
  %19 = alloca ptr, align 8
  %20 = alloca i32, align 4
  %21 = alloca i32, align 4
  store ptr %0, ptr %11, align 8, !tbaa !3
  store ptr %1, ptr %12, align 8, !tbaa !3
  store i32 %2, ptr %13, align 4, !tbaa !38
  store ptr %3, ptr %14, align 8, !tbaa !7
  store ptr %4, ptr %15, align 8, !tbaa !220
  store i64 %5, ptr %16, align 8, !tbaa !30
  store ptr %6, ptr %17, align 8, !tbaa !222
  store i64 %7, ptr %18, align 8, !tbaa !30
  store ptr %8, ptr %19, align 8, !tbaa !222
  call void @llvm.lifetime.start.p0(i64 4, ptr %20) #10
  %22 = load ptr, ptr %15, align 8, !tbaa !220
  %23 = load ptr, ptr %22, align 8, !tbaa !89
  %24 = icmp ne ptr %23, null
  br i1 %24, label %25, label %80

25:                                               ; preds = %9
  %26 = load ptr, ptr %11, align 8, !tbaa !3
  %27 = icmp eq ptr %26, null
  br i1 %27, label %28, label %42

28:                                               ; preds = %25
  %29 = load ptr, ptr %15, align 8, !tbaa !220
  %30 = load ptr, ptr %29, align 8, !tbaa !89
  %31 = load i32, ptr %13, align 4, !tbaa !38
  call void @N_VDestroyVectorArray(ptr noundef %30, i32 noundef %31)
  %32 = load ptr, ptr %15, align 8, !tbaa !220
  store ptr null, ptr %32, align 8, !tbaa !89
  %33 = load i32, ptr %13, align 4, !tbaa !38
  %34 = load ptr, ptr %14, align 8, !tbaa !7
  %35 = call ptr @N_VCloneVectorArray(i32 noundef %33, ptr noundef %34)
  %36 = load ptr, ptr %15, align 8, !tbaa !220
  store ptr %35, ptr %36, align 8, !tbaa !89
  %37 = load ptr, ptr %15, align 8, !tbaa !220
  %38 = load ptr, ptr %37, align 8, !tbaa !89
  %39 = icmp eq ptr %38, null
  br i1 %39, label %40, label %41

40:                                               ; preds = %28
  store i32 0, ptr %10, align 4
  store i32 1, ptr %21, align 4
  br label %81

41:                                               ; preds = %28
  br label %65

42:                                               ; preds = %25
  store i32 0, ptr %20, align 4, !tbaa !38
  br label %43

43:                                               ; preds = %61, %42
  %44 = load i32, ptr %20, align 4, !tbaa !38
  %45 = load i32, ptr %13, align 4, !tbaa !38
  %46 = icmp slt i32 %44, %45
  br i1 %46, label %47, label %64

47:                                               ; preds = %43
  %48 = load ptr, ptr %11, align 8, !tbaa !3
  %49 = load ptr, ptr %15, align 8, !tbaa !220
  %50 = load ptr, ptr %49, align 8, !tbaa !89
  %51 = load i32, ptr %20, align 4, !tbaa !38
  %52 = sext i32 %51 to i64
  %53 = getelementptr inbounds ptr, ptr %50, i64 %52
  %54 = load ptr, ptr %53, align 8, !tbaa !7
  %55 = load ptr, ptr %14, align 8, !tbaa !7
  %56 = load ptr, ptr %12, align 8, !tbaa !3
  %57 = call i32 %48(ptr noundef %54, ptr noundef %55, ptr noundef %56)
  %58 = icmp ne i32 %57, 0
  br i1 %58, label %59, label %60

59:                                               ; preds = %47
  store i32 0, ptr %10, align 4
  store i32 1, ptr %21, align 4
  br label %81

60:                                               ; preds = %47
  br label %61

61:                                               ; preds = %60
  %62 = load i32, ptr %20, align 4, !tbaa !38
  %63 = add nsw i32 %62, 1
  store i32 %63, ptr %20, align 4, !tbaa !38
  br label %43

64:                                               ; preds = %43
  br label %65

65:                                               ; preds = %64, %41
  %66 = load i32, ptr %13, align 4, !tbaa !38
  %67 = sext i32 %66 to i64
  %68 = load i64, ptr %16, align 8, !tbaa !30
  %69 = mul nsw i64 %67, %68
  %70 = load ptr, ptr %17, align 8, !tbaa !222
  %71 = load i64, ptr %70, align 8, !tbaa !30
  %72 = add nsw i64 %71, %69
  store i64 %72, ptr %70, align 8, !tbaa !30
  %73 = load i32, ptr %13, align 4, !tbaa !38
  %74 = sext i32 %73 to i64
  %75 = load i64, ptr %18, align 8, !tbaa !30
  %76 = mul nsw i64 %74, %75
  %77 = load ptr, ptr %19, align 8, !tbaa !222
  %78 = load i64, ptr %77, align 8, !tbaa !30
  %79 = add nsw i64 %78, %76
  store i64 %79, ptr %77, align 8, !tbaa !30
  br label %80

80:                                               ; preds = %65, %9
  store i32 1, ptr %10, align 4
  store i32 1, ptr %21, align 4
  br label %81

81:                                               ; preds = %80, %59, %40
  call void @llvm.lifetime.end.p0(i64 4, ptr %20) #10
  %82 = load i32, ptr %10, align 4
  ret i32 %82
}