; Function Attrs: nounwind uwtable
define range(i32 0, 2) i32 @arkResizeVecArray(ptr noundef readonly captures(address_is_null) %0, ptr noundef %1, i32 noundef %2, ptr noundef %3, ptr noundef captures(none) %4, i64 noundef %5, ptr noundef captures(none) %6, i64 noundef %7, ptr noundef captures(none) %8) local_unnamed_addr #0 {
  %10 = load ptr, ptr %4, align 8, !tbaa !165
  %.not = icmp eq ptr %10, null
  br i1 %.not, label %.loopexit27, label %11

11:                                               ; preds = %9
  %12 = icmp eq ptr %0, null
  br i1 %12, label %14, label %.preheader

.preheader:                                       ; preds = %11
  %13 = icmp sgt i32 %2, 0
  br i1 %13, label %.lr.ph.preheader, label %.loopexit

.lr.ph.preheader:                                 ; preds = %.preheader
  %wide.trip.count = zext nneg i32 %2 to i64
  br label %.lr.ph

14:                                               ; preds = %11
  tail call void @N_VDestroyVectorArray(ptr noundef nonnull %10, i32 noundef %2) #16
  store ptr null, ptr %4, align 8, !tbaa !165
  %15 = tail call ptr @N_VCloneVectorArray(i32 noundef %2, ptr noundef %3) #16
  store ptr %15, ptr %4, align 8, !tbaa !165
  %16 = icmp eq ptr %15, null
  br i1 %16, label %.loopexit27, label %.loopexit

17:                                               ; preds = %.lr.ph
  %indvars.iv.next = add nuw nsw i64 %indvars.iv, 1
  %exitcond.not = icmp eq i64 %indvars.iv.next, %wide.trip.count
  br i1 %exitcond.not, label %.loopexit, label %.lr.ph

.lr.ph:                                           ; preds = %.lr.ph.preheader, %17
  %indvars.iv = phi i64 [ 0, %.lr.ph.preheader ], [ %indvars.iv.next, %17 ]
  %18 = load ptr, ptr %4, align 8, !tbaa !165
  %19 = getelementptr inbounds nuw ptr, ptr %18, i64 %indvars.iv
  %20 = load ptr, ptr %19, align 8, !tbaa !52
  %21 = tail call i32 %0(ptr noundef %20, ptr noundef %3, ptr noundef %1) #16
  %.not26 = icmp eq i32 %21, 0
  br i1 %.not26, label %17, label %.loopexit27

.loopexit:                                        ; preds = %17, %.preheader, %14
  %22 = sext i32 %2 to i64
  %23 = mul nsw i64 %5, %22
  %24 = load i64, ptr %6, align 8, !tbaa !25
  %25 = add nsw i64 %24, %23
  store i64 %25, ptr %6, align 8, !tbaa !25
  %26 = mul nsw i64 %7, %22
  %27 = load i64, ptr %8, align 8, !tbaa !25
  %28 = add nsw i64 %27, %26
  store i64 %28, ptr %8, align 8, !tbaa !25
  br label %.loopexit27

.loopexit27:                                      ; preds = %.lr.ph, %9, %.loopexit, %14
  %.023 = phi i32 [ 0, %14 ], [ 1, %.loopexit ], [ 1, %9 ], [ 0, %.lr.ph ]
  ret i32 %.023
}